target datalayout = "e-m:e-p270:32:32-p271:32:32-p272:64:64-i64:64-i128:128-f80:128-n8:16:32:64-S128"
target triple = "x86_64-unknown-linux-gnu"

%class.dep_intervals = type { ptr, %class.mpq_manager, %"class.dep_intervals::im_config", %class.interval_manager }
%class.mpq_manager = type { %class.mpz_manager, %class.mpz, %class.mpz, %class.mpz, %class.mpz, %class.mpq, %class.mpq }
%class.mpz_manager = type { %class.small_object_allocator, %"class.std::recursive_mutex", %class.mpn_manager, i32, %class.mpz, %class.mpz }
%class.small_object_allocator = type { [32 x ptr], [32 x ptr], i64 }
%"class.std::recursive_mutex" = type { %"class.std::__recursive_mutex_base" }
%"class.std::__recursive_mutex_base" = type { %union.pthread_mutex_t }
%union.pthread_mutex_t = type { %struct.__pthread_mutex_s }
%struct.__pthread_mutex_s = type { i32, i32, i32, i32, i32, i16, i16, %struct.__pthread_internal_list }
%struct.__pthread_internal_list = type { ptr, ptr }
%class.mpn_manager = type { i8 }
%class.mpz = type { i32, i8, ptr }
%class.mpq = type { %class.mpz, %class.mpz }
%"class.dep_intervals::im_config" = type { ptr, ptr }
%class.interval_manager = type { ptr, %"class.dep_intervals::im_config", %class.mpq, %class.mpq, %class.mpq, %class.mpq, %class.mpq, %class.mpq, %class.mpq, %class.mpq, %class.mpq, i32, %"struct.dep_intervals::im_config::interval", %"struct.dep_intervals::im_config::interval", %"struct.dep_intervals::im_config::interval", %"struct.dep_intervals::im_config::interval" }
%"struct.dep_intervals::im_config::interval" = type { %class.mpq, %class.mpq, i8, ptr, ptr }

; Function Attrs: mustprogress nounwind uwtable
define linkonce_odr hidden noundef zeroext i1 @_ZN11mpz_managerILb0EE8is_smallERK3mpz(ptr noundef nonnull align 8 dereferenceable(16) %a) #5 comdat align 2 {
entry:
  %a.addr = alloca ptr, align 8
  store ptr %a, ptr %a.addr, align 8
  %0 = load ptr, ptr %a.addr, align 8
  %m_kind = getelementptr inbounds %class.mpz, ptr %0, i32 0, i32 1
  %bf.load = load i8, ptr %m_kind, align 4
  %bf.clear = and i8 %bf.load, 1
  %bf.cast = zext i8 %bf.clear to i32
  %cmp = icmp eq i32 %bf.cast, 0
  ret i1 %cmp
}

; Function Attrs: mustprogress nounwind uwtable
define linkonce_odr hidden noundef zeroext i1 @_ZN11mpz_managerILb0EE6is_oneERK3mpz(ptr noundef nonnull align 8 dereferenceable(16) %a) #5 comdat align 2 {
entry:
  %a.addr = alloca ptr, align 8
  store ptr %a, ptr %a.addr, align 8
  %0 = load ptr, ptr %a.addr, align 8
  %call = call noundef zeroext i1 @_ZN11mpz_managerILb0EE8is_smallERK3mpz(ptr noundef nonnull align 8 dereferenceable(16) %0)
  br i1 %call, label %land.rhs, label %land.end

land.rhs:                                         ; preds = %entry
  %1 = load ptr, ptr %a.addr, align 8
  %m_val = getelementptr inbounds %class.mpz, ptr %1, i32 0, i32 0
  %2 = load i32, ptr %m_val, align 8
  %cmp = icmp eq i32 %2, 1
  br label %land.end

land.end:                                         ; preds = %land.rhs, %entry
  %3 = phi i1 [ false, %entry ], [ %cmp, %land.rhs ]
  ret i1 %3
}

; Function Attrs: mustprogress uwtable
define linkonce_odr hidden noundef zeroext i1 @_ZN11mpz_managerILb0EE2ltERK3mpzS3_(ptr noundef nonnull align 8 dereferenceable(600) %this, ptr noundef nonnull align 8 dereferenceable(16) %a, ptr noundef nonnull align 8 dereferenceable(16) %b) #4 comdat align 2 {
entry:
  %retval = alloca i1, align 1
  %this.addr = alloca ptr, align 8
  %a.addr = alloca ptr, align 8
  %b.addr = alloca ptr, align 8
  store ptr %this, ptr %this.addr, align 8
  store ptr %a, ptr %a.addr, align 8
  store ptr %b, ptr %b.addr, align 8
  %this1 = load ptr, ptr %this.addr, align 8
  %0 = load ptr, ptr %a.addr, align 8
  %call = call noundef zeroext i1 @_ZN11mpz_managerILb0EE8is_smallERK3mpz(ptr noundef nonnull align 8 dereferenceable(16) %0)
  br i1 %call, label %land.lhs.true, label %if.else

land.lhs.true:                                    ; preds = %entry
  %1 = load ptr, ptr %b.addr, align 8
  %call2 = call noundef zeroext i1 @_ZN11mpz_managerILb0EE8is_smallERK3mpz(ptr noundef nonnull align 8 dereferenceable(16) %1)
  br i1 %call2, label %if.then, label %if.else

if.then:                                          ; preds = %land.lhs.true
  %2 = load ptr, ptr %a.addr, align 8
  %m_val = getelementptr inbounds %class.mpz, ptr %2, i32 0, i32 0
  %3 = load i32, ptr %m_val, align 8
  %4 = load ptr, ptr %b.addr, align 8
  %m_val3 = getelementptr inbounds %class.mpz, ptr %4, i32 0, i32 0
  %5 = load i32, ptr %m_val3, align 8
  %cmp = icmp slt i32 %3, %5
  store i1 %cmp, ptr %retval, align 1
  br label %return

if.else:                                          ; preds = %land.lhs.true, %entry
  %6 = load ptr, ptr %a.addr, align 8
  %7 = load ptr, ptr %b.addr, align 8
  %call4 = call noundef i32 @_ZN11mpz_managerILb0EE11big_compareERK3mpzS3_(ptr noundef nonnull align 8 dereferenceable(600) %this1, ptr noundef nonnull align 8 dereferenceable(16) %6, ptr noundef nonnull align 8 dereferenceable(16) %7)
  %cmp5 = icmp slt i32 %call4, 0
  store i1 %cmp5, ptr %retval, align 1
  br label %return

return:                                           ; preds = %if.else, %if.then
  %8 = load i1, ptr %retval, align 1
  ret i1 %8
}

; Function Attrs: mustprogress uwtable
define linkonce_odr hidden noundef zeroext i1 @_ZN11mpq_managerILb0EE6is_oneERK3mpz(ptr noundef nonnull align 8 dereferenceable(16) %a) #4 comdat align 2 {
entry:
  %a.addr = alloca ptr, align 8
  store ptr %a, ptr %a.addr, align 8
  %0 = load ptr, ptr %a.addr, align 8
  %call = call noundef zeroext i1 @_ZN11mpz_managerILb0EE6is_oneERK3mpz(ptr noundef nonnull align 8 dereferenceable(16) %0)
  ret i1 %call
}

; Function Attrs: mustprogress uwtable
define linkonce_odr hidden noundef zeroext i1 @_ZN11mpq_managerILb0EE2ltERK3mpzS3_(ptr noundef nonnull align 8 dereferenceable(728) %this, ptr noundef nonnull align 8 dereferenceable(16) %a, ptr noundef nonnull align 8 dereferenceable(16) %b) #4 comdat align 2 {
entry:
  %this.addr = alloca ptr, align 8
  %a.addr = alloca ptr, align 8
  %b.addr = alloca ptr, align 8
  store ptr %this, ptr %this.addr, align 8
  store ptr %a, ptr %a.addr, align 8
  store ptr %b, ptr %b.addr, align 8
  %this1 = load ptr, ptr %this.addr, align 8
  %0 = load ptr, ptr %a.addr, align 8
  %1 = load ptr, ptr %b.addr, align 8
  %call = call noundef zeroext i1 @_ZN11mpz_managerILb0EE2ltERK3mpzS3_(ptr noundef nonnull align 8 dereferenceable(600) %this1, ptr noundef nonnull align 8 dereferenceable(16) %0, ptr noundef nonnull align 8 dereferenceable(16) %1)
  ret i1 %call
}

; Function Attrs: mustprogress uwtable
define linkonce_odr hidden noundef zeroext i1 @_ZN11mpq_managerILb0EE6is_intERK3mpq(ptr noundef nonnull align 8 dereferenceable(32) %a) #4 comdat align 2 {
entry:
  %a.addr = alloca ptr, align 8
  store ptr %a, ptr %a.addr, align 8
  %0 = load ptr, ptr %a.addr, align 8
  %m_den = getelementptr inbounds %class.mpq, ptr %0, i32 0, i32 1
  %call = call noundef zeroext i1 @_ZN11mpq_managerILb0EE6is_oneERK3mpz(ptr noundef nonnull align 8 dereferenceable(16) %m_den)
  ret i1 %call
}

; Function Attrs: mustprogress uwtable
define linkonce_odr hidden noundef zeroext i1 @_ZN11mpq_managerILb0EE2ltERK3mpqS3_(ptr noundef nonnull align 8 dereferenceable(728) %this, ptr noundef nonnull align 8 dereferenceable(32) %a, ptr noundef nonnull align 8 dereferenceable(32) %b) #4 comdat align 2 {
entry:
  %retval = alloca i1, align 1
  %this.addr = alloca ptr, align 8
  %a.addr = alloca ptr, align 8
  %b.addr = alloca ptr, align 8
  store ptr %this, ptr %this.addr, align 8
  store ptr %a, ptr %a.addr, align 8
  store ptr %b, ptr %b.addr, align 8
  %this1 = load ptr, ptr %this.addr, align 8
  %0 = load ptr, ptr %a.addr, align 8
  %call = call noundef zeroext i1 @_ZN11mpq_managerILb0EE6is_intERK3mpq(ptr noundef nonnull align 8 dereferenceable(32) %0)
  br i1 %call, label %land.lhs.true, label %if.else

land.lhs.true:                                    ; preds = %entry
  %1 = load ptr, ptr %b.addr, align 8
  %call2 = call noundef zeroext i1 @_ZN11mpq_managerILb0EE6is_intERK3mpq(ptr noundef nonnull align 8 dereferenceable(32) %1)
  br i1 %call2, label %if.then, label %if.else

if.then:                                          ; preds = %land.lhs.true
  %2 = load ptr, ptr %a.addr, align 8
  %m_num = getelementptr inbounds %class.mpq, ptr %2, i32 0, i32 0
  %3 = load ptr, ptr %b.addr, align 8
  %m_num3 = getelementptr inbounds %class.mpq, ptr %3, i32 0, i32 0
  %call4 = call noundef zeroext i1 @_ZN11mpq_managerILb0EE2ltERK3mpzS3_(ptr noundef nonnull align 8 dereferenceable(728) %this1, ptr noundef nonnull align 8 dereferenceable(16) %m_num, ptr noundef nonnull align 8 dereferenceable(16) %m_num3)
  store i1 %call4, ptr %retval, align 1
  br label %return

if.else:                                          ; preds = %land.lhs.true, %entry
  %4 = load ptr, ptr %a.addr, align 8
  %5 = load ptr, ptr %b.addr, align 8
  %call5 = call noundef zeroext i1 @_ZN11mpq_managerILb0EE6rat_ltERK3mpqS3_(ptr noundef nonnull align 8 dereferenceable(728) %this1, ptr noundef nonnull align 8 dereferenceable(32) %4, ptr noundef nonnull align 8 dereferenceable(32) %5)
  store i1 %call5, ptr %retval, align 1
  br label %return

return:                                           ; preds = %if.else, %if.then
  %6 = load i1, ptr %retval, align 1
  ret i1 %6
}

; Function Attrs: mustprogress uwtable
define linkonce_odr hidden noundef zeroext i1 @_ZN11mpq_managerILb0EE2gtERK3mpqS3_(ptr noundef nonnull align 8 dereferenceable(728) %this, ptr noundef nonnull align 8 dereferenceable(32) %a, ptr noundef nonnull align 8 dereferenceable(32) %b) #4 comdat align 2 {
entry:
  %this.addr = alloca ptr, align 8
  %a.addr = alloca ptr, align 8
  %b.addr = alloca ptr, align 8
  store ptr %this, ptr %this.addr, align 8
  store ptr %a, ptr %a.addr, align 8
  store ptr %b, ptr %b.addr, align 8
  %this1 = load ptr, ptr %this.addr, align 8
  %0 = load ptr, ptr %b.addr, align 8
  %1 = load ptr, ptr %a.addr, align 8
  %call = call noundef zeroext i1 @_ZN11mpq_managerILb0EE2ltERK3mpqS3_(ptr noundef nonnull align 8 dereferenceable(728) %this1, ptr noundef nonnull align 8 dereferenceable(32) %0, ptr noundef nonnull align 8 dereferenceable(32) %1)
  ret i1 %call
}

; Function Attrs: mustprogress uwtable
define hidden noundef zeroext i1 @_ZNK13dep_intervals8is_emptyERKNS_9im_config8intervalE(ptr noundef nonnull align 8 dereferenceable(1424) %this, ptr noundef nonnull align 8 dereferenceable(88) %a) #4 align 2 {
entry:
  %retval = alloca i1, align 1
  %this.addr = alloca ptr, align 8
  %a.addr = alloca ptr, align 8
  store ptr %this, ptr %this.addr, align 8
  store ptr %a, ptr %a.addr, align 8
  %this1 = load ptr, ptr %this.addr, align 8
  %0 = load ptr, ptr %a.addr, align 8
  %m_lower_inf = getelementptr inbounds %"struct.dep_intervals::im_config::interval", ptr %0, i32 0, i32 2
  %bf.load = load i8, ptr %m_lower_inf, align 8
  %bf.lshr = lshr i8 %bf.load, 2
  %bf.clear = and i8 %bf.lshr, 1
  %bf.cast = zext i8 %bf.clear to i32
  %tobool = icmp ne i32 %bf.cast, 0
  br i1 %tobool, label %if.then, label %lor.lhs.false

lor.lhs.false:                                    ; preds = %entry
  %1 = load ptr, ptr %a.addr, align 8
  %m_upper_inf = getelementptr inbounds %"struct.dep_intervals::im_config::interval", ptr %1, i32 0, i32 2
  %bf.load2 = load i8, ptr %m_upper_inf, align 8
  %bf.lshr3 = lshr i8 %bf.load2, 3
  %bf.clear4 = and i8 %bf.lshr3, 1
  %bf.cast5 = zext i8 %bf.clear4 to i32
  %tobool6 = icmp ne i32 %bf.cast5, 0
  br i1 %tobool6, label %if.then, label %if.end

if.then:                                          ; preds = %lor.lhs.false, %entry
  store i1 false, ptr %retval, align 1
  br label %return

if.end:                                           ; preds = %lor.lhs.false
  %m_num_manager = getelementptr inbounds %class.dep_intervals, ptr %this1, i32 0, i32 1
  %2 = load ptr, ptr %a.addr, align 8
  %m_lower = getelementptr inbounds %"struct.dep_intervals::im_config::interval", ptr %2, i32 0, i32 0
  %3 = load ptr, ptr %a.addr, align 8
  %m_upper = getelementptr inbounds %"struct.dep_intervals::im_config::interval", ptr %3, i32 0, i32 1
  %call = call noundef zeroext i1 @_ZN11mpq_managerILb0EE2gtERK3mpqS3_(ptr noundef nonnull align 8 dereferenceable(728) %m_num_manager, ptr noundef nonnull align 8 dereferenceable(32) %m_lower, ptr noundef nonnull align 8 dereferenceable(32) %m_upper)
  br i1 %call, label %if.then7, label %if.end8

if.then7:                                         ; preds = %if.end
  store i1 true, ptr %retval, align 1
  br label %return

if.end8:                                          ; preds = %if.end
  %m_num_manager9 = getelementptr inbounds %class.dep_intervals, ptr %this1, i32 0, i32 1
  %4 = load ptr, ptr %a.addr, align 8
  %m_lower10 = getelementptr inbounds %"struct.dep_intervals::im_config::interval", ptr %4, i32 0, i32 0
  %5 = load ptr, ptr %a.addr, align 8
  %m_upper11 = getelementptr inbounds %"struct.dep_intervals::im_config::interval", ptr %5, i32 0, i32 1
  %call12 = call noundef zeroext i1 @_ZN11mpq_managerILb0EE2ltERK3mpqS3_(ptr noundef nonnull align 8 dereferenceable(728) %m_num_manager9, ptr noundef nonnull align 8 dereferenceable(32) %m_lower10, ptr noundef nonnull align 8 dereferenceable(32) %m_upper11)
  br i1 %call12, label %if.then13, label %if.end14

if.then13:                                        ; preds = %if.end8
  store i1 false, ptr %retval, align 1
  br label %return

if.end14:                                         ; preds = %if.end8
  %6 = load ptr, ptr %a.addr, align 8
  %m_lower_open = getelementptr inbounds %"struct.dep_intervals::im_config::interval", ptr %6, i32 0, i32 2
  %bf.load15 = load i8, ptr %m_lower_open, align 8
  %bf.clear16 = and i8 %bf.load15, 1
  %bf.cast17 = zext i8 %bf.clear16 to i32
  %tobool18 = icmp ne i32 %bf.cast17, 0
  br i1 %tobool18, label %if.then25, label %lor.lhs.false19

lor.lhs.false19:                                  ; preds = %if.end14
  %7 = load ptr, ptr %a.addr, align 8
  %m_upper_open = getelementptr inbounds %"struct.dep_intervals::im_config::interval", ptr %7, i32 0, i32 2
  %bf.load20 = load i8, ptr %m_upper_open, align 8
  %bf.lshr21 = lshr i8 %bf.load20, 1
  %bf.clear22 = and i8 %bf.lshr21, 1
  %bf.cast23 = zext i8 %bf.clear22 to i32
  %tobool24 = icmp ne i32 %bf.cast23, 0
  br i1 %tobool24, label %if.then25, label %if.end26

if.then25:                                        ; preds = %lor.lhs.false19, %if.end14
  store i1 true, ptr %retval, align 1
  br label %return

if.end26:                                         ; preds = %lor.lhs.false19
  store i1 false, ptr %retval, align 1
  br label %return

return:                                           ; preds = %if.end26, %if.then25, %if.then13, %if.then7, %if.then
  %8 = load i1, ptr %retval, align 1
  ret i1 %8
}