; Function Attrs: mustprogress uwtable
define hidden noundef zeroext i1 @_ZNK13dep_intervals8is_emptyERKNS_9im_config8intervalE(ptr noundef nonnull align 8 dereferenceable(1424) %this, ptr noundef nonnull align 8 dereferenceable(88) %a) local_unnamed_addr #3 align 2 {
entry:
  %m_lower_inf = getelementptr inbounds i8, ptr %a, i64 64
  %bf.load = load i8, ptr %m_lower_inf, align 8
  %0 = and i8 %bf.load, 12
  %or.cond = icmp eq i8 %0, 0
  br i1 %or.cond, label %if.end, label %return

if.end:                                           ; preds = %entry
  %m_num_manager = getelementptr inbounds i8, ptr %this, i64 8
  %m_upper = getelementptr inbounds i8, ptr %a, i64 32
  %m_den.i.i.i = getelementptr inbounds i8, ptr %a, i64 48
  %m_kind.i.i.i.i.i.i = getelementptr inbounds i8, ptr %a, i64 52
  %bf.load.i.i.i.i.i.i = load i8, ptr %m_kind.i.i.i.i.i.i, align 4
  %bf.clear.i.i.i.i.i.i = and i8 %bf.load.i.i.i.i.i.i, 1
  %cmp.i.i.i.i.i.i = icmp eq i8 %bf.clear.i.i.i.i.i.i, 0
  %1 = load i32, ptr %m_den.i.i.i, align 8
  %cmp.i.i.i.i.i = icmp eq i32 %1, 1
  %2 = select i1 %cmp.i.i.i.i.i.i, i1 %cmp.i.i.i.i.i, i1 false
  br i1 %2, label %land.lhs.true.i.i, label %if.else.i.i

land.lhs.true.i.i:                                ; preds = %if.end
  %m_den.i5.i.i = getelementptr inbounds i8, ptr %a, i64 16
  %m_kind.i.i.i.i6.i.i = getelementptr inbounds i8, ptr %a, i64 20
  %bf.load.i.i.i.i7.i.i = load i8, ptr %m_kind.i.i.i.i6.i.i, align 4
  %bf.clear.i.i.i.i8.i.i = and i8 %bf.load.i.i.i.i7.i.i, 1
  %cmp.i.i.i.i9.i.i = icmp eq i8 %bf.clear.i.i.i.i8.i.i, 0
  %3 = load i32, ptr %m_den.i5.i.i, align 8
  %cmp.i.i.i10.i.i = icmp eq i32 %3, 1
  %4 = select i1 %cmp.i.i.i.i9.i.i, i1 %cmp.i.i.i10.i.i, i1 false
  br i1 %4, label %if.then.i.i, label %if.else.i.i

if.then.i.i:                                      ; preds = %land.lhs.true.i.i
  %m_kind.i.i.i.i.i = getelementptr inbounds i8, ptr %a, i64 36
  %bf.load.i.i.i.i.i = load i8, ptr %m_kind.i.i.i.i.i, align 4
  %bf.clear.i.i.i.i.i = and i8 %bf.load.i.i.i.i.i, 1
  %cmp.i.i.i11.i.i = icmp eq i8 %bf.clear.i.i.i.i.i, 0
  br i1 %cmp.i.i.i11.i.i, label %land.lhs.true.i.i.i.i, label %_ZN11mpq_managerILb0EE2gtERK3mpqS3_.exit

land.lhs.true.i.i.i.i:                            ; preds = %if.then.i.i
  %m_kind.i5.i.i.i.i = getelementptr inbounds i8, ptr %a, i64 4
  %bf.load.i6.i.i.i.i = load i8, ptr %m_kind.i5.i.i.i.i, align 4
  %bf.clear.i7.i.i.i.i = and i8 %bf.load.i6.i.i.i.i, 1
  %cmp.i8.i.i.i.i = icmp eq i8 %bf.clear.i7.i.i.i.i, 0
  br i1 %cmp.i8.i.i.i.i, label %if.then.i.i.i.i, label %_ZN11mpq_managerILb0EE2gtERK3mpqS3_.exit

if.then.i.i.i.i:                                  ; preds = %land.lhs.true.i.i.i.i
  %5 = load i32, ptr %m_upper, align 8
  %6 = load i32, ptr %a, align 8
  %cmp.i.i.i.i = icmp slt i32 %5, %6
  br i1 %cmp.i.i.i.i, label %return, label %if.end8

if.else.i.i:                                      ; preds = %land.lhs.true.i.i, %if.end
  %call5.i.i = tail call noundef zeroext i1 @_ZN11mpq_managerILb0EE6rat_ltERK3mpqS3_(ptr noundef nonnull align 8 dereferenceable(728) %m_num_manager, ptr noundef nonnull align 8 dereferenceable(32) %m_upper, ptr noundef nonnull align 8 dereferenceable(32) %a)
  br i1 %call5.i.i, label %return, label %if.end8

_ZN11mpq_managerILb0EE2gtERK3mpqS3_.exit:         ; preds = %if.then.i.i, %land.lhs.true.i.i.i.i
  %call4.i.i.i.i = tail call noundef i32 @_ZN11mpz_managerILb0EE11big_compareERK3mpzS3_(ptr noundef nonnull align 8 dereferenceable(600) %m_num_manager, ptr noundef nonnull align 8 dereferenceable(16) %m_upper, ptr noundef nonnull align 8 dereferenceable(16) %a)
  %cmp5.i.i.i.i = icmp slt i32 %call4.i.i.i.i, 0
  br i1 %cmp5.i.i.i.i, label %return, label %if.end8

if.end8:                                          ; preds = %if.then.i.i.i.i, %if.else.i.i, %_ZN11mpq_managerILb0EE2gtERK3mpqS3_.exit
  %m_den.i.i = getelementptr inbounds i8, ptr %a, i64 16
  %m_kind.i.i.i.i.i9 = getelementptr inbounds i8, ptr %a, i64 20
  %bf.load.i.i.i.i.i10 = load i8, ptr %m_kind.i.i.i.i.i9, align 4
  %bf.clear.i.i.i.i.i11 = and i8 %bf.load.i.i.i.i.i10, 1
  %cmp.i.i.i.i.i12 = icmp eq i8 %bf.clear.i.i.i.i.i11, 0
  %7 = load i32, ptr %m_den.i.i, align 8
  %cmp.i.i.i.i13 = icmp eq i32 %7, 1
  %8 = select i1 %cmp.i.i.i.i.i12, i1 %cmp.i.i.i.i13, i1 false
  br i1 %8, label %land.lhs.true.i, label %if.else.i

land.lhs.true.i:                                  ; preds = %if.end8
  %bf.load.i.i.i.i7.i = load i8, ptr %m_kind.i.i.i.i.i.i, align 4
  %bf.clear.i.i.i.i8.i = and i8 %bf.load.i.i.i.i7.i, 1
  %cmp.i.i.i.i9.i = icmp eq i8 %bf.clear.i.i.i.i8.i, 0
  %9 = load i32, ptr %m_den.i.i.i, align 8
  %cmp.i.i.i10.i = icmp eq i32 %9, 1
  %10 = select i1 %cmp.i.i.i.i9.i, i1 %cmp.i.i.i10.i, i1 false
  br i1 %10, label %if.then.i, label %if.else.i

if.then.i:                                        ; preds = %land.lhs.true.i
  %m_kind.i.i.i.i = getelementptr inbounds i8, ptr %a, i64 4
  %bf.load.i.i.i.i = load i8, ptr %m_kind.i.i.i.i, align 4
  %bf.clear.i.i.i.i = and i8 %bf.load.i.i.i.i, 1
  %cmp.i.i.i11.i = icmp eq i8 %bf.clear.i.i.i.i, 0
  br i1 %cmp.i.i.i11.i, label %land.lhs.true.i.i.i, label %_ZN11mpq_managerILb0EE2ltERK3mpqS3_.exit

land.lhs.true.i.i.i:                              ; preds = %if.then.i
  %m_kind.i5.i.i.i = getelementptr inbounds i8, ptr %a, i64 36
  %bf.load.i6.i.i.i = load i8, ptr %m_kind.i5.i.i.i, align 4
  %bf.clear.i7.i.i.i = and i8 %bf.load.i6.i.i.i, 1
  %cmp.i8.i.i.i = icmp eq i8 %bf.clear.i7.i.i.i, 0
  br i1 %cmp.i8.i.i.i, label %if.then.i.i.i, label %_ZN11mpq_managerILb0EE2ltERK3mpqS3_.exit

if.then.i.i.i:                                    ; preds = %land.lhs.true.i.i.i
  %11 = load i32, ptr %a, align 8
  %12 = load i32, ptr %m_upper, align 8
  %cmp.i.i.i = icmp slt i32 %11, %12
  br i1 %cmp.i.i.i, label %return, label %if.end14

if.else.i:                                        ; preds = %land.lhs.true.i, %if.end8
  %call5.i = tail call noundef zeroext i1 @_ZN11mpq_managerILb0EE6rat_ltERK3mpqS3_(ptr noundef nonnull align 8 dereferenceable(728) %m_num_manager, ptr noundef nonnull align 8 dereferenceable(32) %a, ptr noundef nonnull align 8 dereferenceable(32) %m_upper)
  br i1 %call5.i, label %return, label %if.end14

_ZN11mpq_managerILb0EE2ltERK3mpqS3_.exit:         ; preds = %if.then.i, %land.lhs.true.i.i.i
  %call4.i.i.i = tail call noundef i32 @_ZN11mpz_managerILb0EE11big_compareERK3mpzS3_(ptr noundef nonnull align 8 dereferenceable(600) %m_num_manager, ptr noundef nonnull align 8 dereferenceable(16) %a, ptr noundef nonnull align 8 dereferenceable(16) %m_upper)
  %cmp5.i.i.i = icmp slt i32 %call4.i.i.i, 0
  br i1 %cmp5.i.i.i, label %return, label %if.end14

if.end14:                                         ; preds = %if.then.i.i.i, %if.else.i, %_ZN11mpq_managerILb0EE2ltERK3mpqS3_.exit
  %bf.load15 = load i8, ptr %m_lower_inf, align 8
  %13 = and i8 %bf.load15, 3
  %or.cond8 = icmp ne i8 %13, 0
  br label %return

return:                                           ; preds = %if.then.i.i.i, %if.else.i, %if.then.i.i.i.i, %if.else.i.i, %if.end14, %_ZN11mpq_managerILb0EE2ltERK3mpqS3_.exit, %_ZN11mpq_managerILb0EE2gtERK3mpqS3_.exit, %entry
  %retval.0 = phi i1 [ false, %entry ], [ true, %_ZN11mpq_managerILb0EE2gtERK3mpqS3_.exit ], [ false, %_ZN11mpq_managerILb0EE2ltERK3mpqS3_.exit ], [ %or.cond8, %if.end14 ], [ true, %if.else.i.i ], [ true, %if.then.i.i.i.i ], [ false, %if.else.i ], [ false, %if.then.i.i.i ]
  ret i1 %retval.0
}